target datalayout = "e-m:e-p270:32:32-p271:32:32-p272:64:64-i64:64-i128:128-f80:128-n8:16:32:64-S128"
target triple = "x86_64-pc-linux-gnu"

%"struct.simdjson::internal::decimal" = type { i32, i32, i8, i8, [768 x i8] }

; Function Attrs: inlinehint mustprogress nounwind uwtable
define internal void @_ZN8simdjson8internal12_GLOBAL__N_14trimERNS0_7decimalE(ptr noundef nonnull align 4 dereferenceable(780) %0) #4 {
  %2 = alloca ptr, align 8
  store ptr %0, ptr %2, align 8, !tbaa !44
  br label %3

3:                                                ; preds = %22, %1
  %4 = load ptr, ptr %2, align 8, !tbaa !44
  %5 = getelementptr inbounds nuw %"struct.simdjson::internal::decimal", ptr %4, i32 0, i32 0
  %6 = load i32, ptr %5, align 4, !tbaa !26
  %7 = icmp ugt i32 %6, 0
  br i1 %7, label %8, label %20

8:                                                ; preds = %3
  %9 = load ptr, ptr %2, align 8, !tbaa !44
  %10 = getelementptr inbounds nuw %"struct.simdjson::internal::decimal", ptr %9, i32 0, i32 4
  %11 = load ptr, ptr %2, align 8, !tbaa !44
  %12 = getelementptr inbounds nuw %"struct.simdjson::internal::decimal", ptr %11, i32 0, i32 0
  %13 = load i32, ptr %12, align 4, !tbaa !26
  %14 = sub i32 %13, 1
  %15 = zext i32 %14 to i64
  %16 = getelementptr inbounds nuw [768 x i8], ptr %10, i64 0, i64 %15
  %17 = load i8, ptr %16, align 1, !tbaa !15
  %18 = zext i8 %17 to i32
  %19 = icmp eq i32 %18, 0
  br label %20

20:                                               ; preds = %8, %3
  %21 = phi i1 [ false, %3 ], [ %19, %8 ]
  br i1 %21, label %22, label %27

22:                                               ; preds = %20
  %23 = load ptr, ptr %2, align 8, !tbaa !44
  %24 = getelementptr inbounds nuw %"struct.simdjson::internal::decimal", ptr %23, i32 0, i32 0
  %25 = load i32, ptr %24, align 4, !tbaa !26
  %26 = add i32 %25, -1
  store i32 %26, ptr %24, align 4, !tbaa !26
  br label %3, !llvm.loop !52

27:                                               ; preds = %20
  ret void
}

; Function Attrs: mustprogress nounwind uwtable
define internal noundef i32 @_ZN8simdjson8internal12_GLOBAL__N_135number_of_digits_decimal_left_shiftERNS0_7decimalEj(ptr noundef nonnull align 4 dereferenceable(780) %0, i32 noundef %1) #2 {
  %3 = alloca i32, align 4
  %4 = alloca ptr, align 8
  %5 = alloca i32, align 4
  %6 = alloca i32, align 4
  %7 = alloca i32, align 4
  %8 = alloca i32, align 4
  %9 = alloca i32, align 4
  %10 = alloca i32, align 4
  %11 = alloca ptr, align 8
  %12 = alloca i32, align 4
  %13 = alloca i32, align 4
  %14 = alloca i32, align 4
  store ptr %0, ptr %4, align 8, !tbaa !44
  store i32 %1, ptr %5, align 4, !tbaa !16
  %15 = load i32, ptr %5, align 4, !tbaa !16
  %16 = and i32 %15, 63
  store i32 %16, ptr %5, align 4, !tbaa !16
  call void @llvm.lifetime.start.p0(i64 4, ptr %6) #10
  %17 = load i32, ptr %5, align 4, !tbaa !16
  %18 = zext i32 %17 to i64
  %19 = getelementptr inbounds nuw [65 x i16], ptr @_ZZN8simdjson8internal12_GLOBAL__N_135number_of_digits_decimal_left_shiftERNS0_7decimalEjE41number_of_digits_decimal_left_shift_table, i64 0, i64 %18
  %20 = load i16, ptr %19, align 2, !tbaa !49
  %21 = zext i16 %20 to i32
  store i32 %21, ptr %6, align 4, !tbaa !16
  call void @llvm.lifetime.start.p0(i64 4, ptr %7) #10
  %22 = load i32, ptr %5, align 4, !tbaa !16
  %23 = add i32 %22, 1
  %24 = zext i32 %23 to i64
  %25 = getelementptr inbounds nuw [65 x i16], ptr @_ZZN8simdjson8internal12_GLOBAL__N_135number_of_digits_decimal_left_shiftERNS0_7decimalEjE41number_of_digits_decimal_left_shift_table, i64 0, i64 %24
  %26 = load i16, ptr %25, align 2, !tbaa !49
  %27 = zext i16 %26 to i32
  store i32 %27, ptr %7, align 4, !tbaa !16
  call void @llvm.lifetime.start.p0(i64 4, ptr %8) #10
  %28 = load i32, ptr %6, align 4, !tbaa !16
  %29 = lshr i32 %28, 11
  store i32 %29, ptr %8, align 4, !tbaa !16
  call void @llvm.lifetime.start.p0(i64 4, ptr %9) #10
  %30 = load i32, ptr %6, align 4, !tbaa !16
  %31 = and i32 2047, %30
  store i32 %31, ptr %9, align 4, !tbaa !16
  call void @llvm.lifetime.start.p0(i64 4, ptr %10) #10
  %32 = load i32, ptr %7, align 4, !tbaa !16
  %33 = and i32 2047, %32
  store i32 %33, ptr %10, align 4, !tbaa !16
  call void @llvm.lifetime.start.p0(i64 8, ptr %11) #10
  %34 = load i32, ptr %9, align 4, !tbaa !16
  %35 = zext i32 %34 to i64
  %36 = getelementptr inbounds nuw [1308 x i8], ptr @_ZZN8simdjson8internal12_GLOBAL__N_135number_of_digits_decimal_left_shiftERNS0_7decimalEjE53number_of_digits_decimal_left_shift_table_powers_of_5, i64 0, i64 %35
  store ptr %36, ptr %11, align 8, !tbaa !4
  call void @llvm.lifetime.start.p0(i64 4, ptr %12) #10
  store i32 0, ptr %12, align 4, !tbaa !16
  call void @llvm.lifetime.start.p0(i64 4, ptr %13) #10
  %37 = load i32, ptr %10, align 4, !tbaa !16
  %38 = load i32, ptr %9, align 4, !tbaa !16
  %39 = sub i32 %37, %38
  store i32 %39, ptr %13, align 4, !tbaa !16
  br label %40

40:                                               ; preds = %89, %2
  %41 = load i32, ptr %12, align 4, !tbaa !16
  %42 = load i32, ptr %13, align 4, !tbaa !16
  %43 = icmp ult i32 %41, %42
  br i1 %43, label %44, label %92

44:                                               ; preds = %40
  %45 = load i32, ptr %12, align 4, !tbaa !16
  %46 = load ptr, ptr %4, align 8, !tbaa !44
  %47 = getelementptr inbounds nuw %"struct.simdjson::internal::decimal", ptr %46, i32 0, i32 0
  %48 = load i32, ptr %47, align 4, !tbaa !26
  %49 = icmp uge i32 %45, %48
  br i1 %49, label %50, label %53

50:                                               ; preds = %44
  %51 = load i32, ptr %8, align 4, !tbaa !16
  %52 = sub i32 %51, 1
  store i32 %52, ptr %3, align 4
  store i32 1, ptr %14, align 4
  br label %94

53:                                               ; preds = %44
  %54 = load ptr, ptr %4, align 8, !tbaa !44
  %55 = getelementptr inbounds nuw %"struct.simdjson::internal::decimal", ptr %54, i32 0, i32 4
  %56 = load i32, ptr %12, align 4, !tbaa !16
  %57 = zext i32 %56 to i64
  %58 = getelementptr inbounds nuw [768 x i8], ptr %55, i64 0, i64 %57
  %59 = load i8, ptr %58, align 1, !tbaa !15
  %60 = zext i8 %59 to i32
  %61 = load ptr, ptr %11, align 8, !tbaa !4
  %62 = load i32, ptr %12, align 4, !tbaa !16
  %63 = zext i32 %62 to i64
  %64 = getelementptr inbounds nuw i8, ptr %61, i64 %63
  %65 = load i8, ptr %64, align 1, !tbaa !15
  %66 = zext i8 %65 to i32
  %67 = icmp eq i32 %60, %66
  br i1 %67, label %68, label %69

68:                                               ; preds = %53
  br label %89

69:                                               ; preds = %53
  %70 = load ptr, ptr %4, align 8, !tbaa !44
  %71 = getelementptr inbounds nuw %"struct.simdjson::internal::decimal", ptr %70, i32 0, i32 4
  %72 = load i32, ptr %12, align 4, !tbaa !16
  %73 = zext i32 %72 to i64
  %74 = getelementptr inbounds nuw [768 x i8], ptr %71, i64 0, i64 %73
  %75 = load i8, ptr %74, align 1, !tbaa !15
  %76 = zext i8 %75 to i32
  %77 = load ptr, ptr %11, align 8, !tbaa !4
  %78 = load i32, ptr %12, align 4, !tbaa !16
  %79 = zext i32 %78 to i64
  %80 = getelementptr inbounds nuw i8, ptr %77, i64 %79
  %81 = load i8, ptr %80, align 1, !tbaa !15
  %82 = zext i8 %81 to i32
  %83 = icmp slt i32 %76, %82
  br i1 %83, label %84, label %87

84:                                               ; preds = %69
  %85 = load i32, ptr %8, align 4, !tbaa !16
  %86 = sub i32 %85, 1
  store i32 %86, ptr %3, align 4
  store i32 1, ptr %14, align 4
  br label %94

87:                                               ; preds = %69
  %88 = load i32, ptr %8, align 4, !tbaa !16
  store i32 %88, ptr %3, align 4
  store i32 1, ptr %14, align 4
  br label %94

89:                                               ; preds = %68
  %90 = load i32, ptr %12, align 4, !tbaa !16
  %91 = add i32 %90, 1
  store i32 %91, ptr %12, align 4, !tbaa !16
  br label %40, !llvm.loop !51

92:                                               ; preds = %40
  %93 = load i32, ptr %8, align 4, !tbaa !16
  store i32 %93, ptr %3, align 4
  store i32 1, ptr %14, align 4
  br label %94

94:                                               ; preds = %92, %87, %84, %50
  call void @llvm.lifetime.end.p0(i64 4, ptr %13) #10
  call void @llvm.lifetime.end.p0(i64 4, ptr %12) #10
  call void @llvm.lifetime.end.p0(i64 8, ptr %11) #10
  call void @llvm.lifetime.end.p0(i64 4, ptr %10) #10
  call void @llvm.lifetime.end.p0(i64 4, ptr %9) #10
  call void @llvm.lifetime.end.p0(i64 4, ptr %8) #10
  call void @llvm.lifetime.end.p0(i64 4, ptr %7) #10
  call void @llvm.lifetime.end.p0(i64 4, ptr %6) #10
  %95 = load i32, ptr %3, align 4
  ret i32 %95
}

; Function Attrs: mustprogress uwtable
define dso_local void @_ZN8simdjson8internal18decimal_left_shiftERNS0_7decimalEj(ptr noundef nonnull align 4 dereferenceable(780) %0, i32 noundef %1) #0 {
  %3 = alloca ptr, align 8
  %4 = alloca i32, align 4
  %5 = alloca i32, align 4
  %6 = alloca i32, align 4
  %7 = alloca i32, align 4
  %8 = alloca i64, align 8
  %9 = alloca i64, align 8
  %10 = alloca i64, align 8
  %11 = alloca i64, align 8
  %12 = alloca i64, align 8
  store ptr %0, ptr %3, align 8, !tbaa !44
  store i32 %1, ptr %4, align 4, !tbaa !16
  %13 = load ptr, ptr %3, align 8, !tbaa !44
  %14 = getelementptr inbounds nuw %"struct.simdjson::internal::decimal", ptr %13, i32 0, i32 0
  %15 = load i32, ptr %14, align 4, !tbaa !26
  %16 = icmp eq i32 %15, 0
  br i1 %16, label %17, label %18

17:                                               ; preds = %2
  br label %129

18:                                               ; preds = %2
  call void @llvm.lifetime.start.p0(i64 4, ptr %5) #10
  %19 = load ptr, ptr %3, align 8, !tbaa !44
  %20 = load i32, ptr %4, align 4, !tbaa !16
  %21 = call noundef i32 @_ZN8simdjson8internal12_GLOBAL__N_135number_of_digits_decimal_left_shiftERNS0_7decimalEj(ptr noundef nonnull align 4 dereferenceable(780) %19, i32 noundef %20)
  store i32 %21, ptr %5, align 4, !tbaa !16
  call void @llvm.lifetime.start.p0(i64 4, ptr %6) #10
  %22 = load ptr, ptr %3, align 8, !tbaa !44
  %23 = getelementptr inbounds nuw %"struct.simdjson::internal::decimal", ptr %22, i32 0, i32 0
  %24 = load i32, ptr %23, align 4, !tbaa !26
  %25 = sub i32 %24, 1
  store i32 %25, ptr %6, align 4, !tbaa !16
  call void @llvm.lifetime.start.p0(i64 4, ptr %7) #10
  %26 = load ptr, ptr %3, align 8, !tbaa !44
  %27 = getelementptr inbounds nuw %"struct.simdjson::internal::decimal", ptr %26, i32 0, i32 0
  %28 = load i32, ptr %27, align 4, !tbaa !26
  %29 = sub i32 %28, 1
  %30 = load i32, ptr %5, align 4, !tbaa !16
  %31 = add i32 %29, %30
  store i32 %31, ptr %7, align 4, !tbaa !16
  call void @llvm.lifetime.start.p0(i64 8, ptr %8) #10
  store i64 0, ptr %8, align 8, !tbaa !21
  br label %32

32:                                               ; preds = %71, %18
  %33 = load i32, ptr %6, align 4, !tbaa !16
  %34 = icmp sge i32 %33, 0
  br i1 %34, label %35, label %77

35:                                               ; preds = %32
  %36 = load ptr, ptr %3, align 8, !tbaa !44
  %37 = getelementptr inbounds nuw %"struct.simdjson::internal::decimal", ptr %36, i32 0, i32 4
  %38 = load i32, ptr %6, align 4, !tbaa !16
  %39 = sext i32 %38 to i64
  %40 = getelementptr inbounds [768 x i8], ptr %37, i64 0, i64 %39
  %41 = load i8, ptr %40, align 1, !tbaa !15
  %42 = zext i8 %41 to i64
  %43 = load i32, ptr %4, align 4, !tbaa !16
  %44 = zext i32 %43 to i64
  %45 = shl i64 %42, %44
  %46 = load i64, ptr %8, align 8, !tbaa !21
  %47 = add i64 %46, %45
  store i64 %47, ptr %8, align 8, !tbaa !21
  call void @llvm.lifetime.start.p0(i64 8, ptr %9) #10
  %48 = load i64, ptr %8, align 8, !tbaa !21
  %49 = udiv i64 %48, 10
  store i64 %49, ptr %9, align 8, !tbaa !21
  call void @llvm.lifetime.start.p0(i64 8, ptr %10) #10
  %50 = load i64, ptr %8, align 8, !tbaa !21
  %51 = load i64, ptr %9, align 8, !tbaa !21
  %52 = mul i64 10, %51
  %53 = sub i64 %50, %52
  store i64 %53, ptr %10, align 8, !tbaa !21
  %54 = load i32, ptr %7, align 4, !tbaa !16
  %55 = icmp ult i32 %54, 768
  br i1 %55, label %56, label %64

56:                                               ; preds = %35
  %57 = load i64, ptr %10, align 8, !tbaa !21
  %58 = trunc i64 %57 to i8
  %59 = load ptr, ptr %3, align 8, !tbaa !44
  %60 = getelementptr inbounds nuw %"struct.simdjson::internal::decimal", ptr %59, i32 0, i32 4
  %61 = load i32, ptr %7, align 4, !tbaa !16
  %62 = zext i32 %61 to i64
  %63 = getelementptr inbounds nuw [768 x i8], ptr %60, i64 0, i64 %62
  store i8 %58, ptr %63, align 1, !tbaa !15
  br label %71

64:                                               ; preds = %35
  %65 = load i64, ptr %10, align 8, !tbaa !21
  %66 = icmp ugt i64 %65, 0
  br i1 %66, label %67, label %70

67:                                               ; preds = %64
  %68 = load ptr, ptr %3, align 8, !tbaa !44
  %69 = getelementptr inbounds nuw %"struct.simdjson::internal::decimal", ptr %68, i32 0, i32 3
  store i8 1, ptr %69, align 1, !tbaa !29
  br label %70

70:                                               ; preds = %67, %64
  br label %71

71:                                               ; preds = %70, %56
  %72 = load i64, ptr %9, align 8, !tbaa !21
  store i64 %72, ptr %8, align 8, !tbaa !21
  %73 = load i32, ptr %7, align 4, !tbaa !16
  %74 = add i32 %73, -1
  store i32 %74, ptr %7, align 4, !tbaa !16
  %75 = load i32, ptr %6, align 4, !tbaa !16
  %76 = add nsw i32 %75, -1
  store i32 %76, ptr %6, align 4, !tbaa !16
  call void @llvm.lifetime.end.p0(i64 8, ptr %10) #10
  call void @llvm.lifetime.end.p0(i64 8, ptr %9) #10
  br label %32, !llvm.loop !47

77:                                               ; preds = %32
  br label %78

78:                                               ; preds = %105, %77
  %79 = load i64, ptr %8, align 8, !tbaa !21
  %80 = icmp ugt i64 %79, 0
  br i1 %80, label %81, label %109

81:                                               ; preds = %78
  call void @llvm.lifetime.start.p0(i64 8, ptr %11) #10
  %82 = load i64, ptr %8, align 8, !tbaa !21
  %83 = udiv i64 %82, 10
  store i64 %83, ptr %11, align 8, !tbaa !21
  call void @llvm.lifetime.start.p0(i64 8, ptr %12) #10
  %84 = load i64, ptr %8, align 8, !tbaa !21
  %85 = load i64, ptr %11, align 8, !tbaa !21
  %86 = mul i64 10, %85
  %87 = sub i64 %84, %86
  store i64 %87, ptr %12, align 8, !tbaa !21
  %88 = load i32, ptr %7, align 4, !tbaa !16
  %89 = icmp ult i32 %88, 768
  br i1 %89, label %90, label %98

90:                                               ; preds = %81
  %91 = load i64, ptr %12, align 8, !tbaa !21
  %92 = trunc i64 %91 to i8
  %93 = load ptr, ptr %3, align 8, !tbaa !44
  %94 = getelementptr inbounds nuw %"struct.simdjson::internal::decimal", ptr %93, i32 0, i32 4
  %95 = load i32, ptr %7, align 4, !tbaa !16
  %96 = zext i32 %95 to i64
  %97 = getelementptr inbounds nuw [768 x i8], ptr %94, i64 0, i64 %96
  store i8 %92, ptr %97, align 1, !tbaa !15
  br label %105

98:                                               ; preds = %81
  %99 = load i64, ptr %12, align 8, !tbaa !21
  %100 = icmp ugt i64 %99, 0
  br i1 %100, label %101, label %104

101:                                              ; preds = %98
  %102 = load ptr, ptr %3, align 8, !tbaa !44
  %103 = getelementptr inbounds nuw %"struct.simdjson::internal::decimal", ptr %102, i32 0, i32 3
  store i8 1, ptr %103, align 1, !tbaa !29
  br label %104

104:                                              ; preds = %101, %98
  br label %105

105:                                              ; preds = %104, %90
  %106 = load i64, ptr %11, align 8, !tbaa !21
  store i64 %106, ptr %8, align 8, !tbaa !21
  %107 = load i32, ptr %7, align 4, !tbaa !16
  %108 = add i32 %107, -1
  store i32 %108, ptr %7, align 4, !tbaa !16
  call void @llvm.lifetime.end.p0(i64 8, ptr %12) #10
  call void @llvm.lifetime.end.p0(i64 8, ptr %11) #10
  br label %78, !llvm.loop !48

109:                                              ; preds = %78
  %110 = load i32, ptr %5, align 4, !tbaa !16
  %111 = load ptr, ptr %3, align 8, !tbaa !44
  %112 = getelementptr inbounds nuw %"struct.simdjson::internal::decimal", ptr %111, i32 0, i32 0
  %113 = load i32, ptr %112, align 4, !tbaa !26
  %114 = add i32 %113, %110
  store i32 %114, ptr %112, align 4, !tbaa !26
  %115 = load ptr, ptr %3, align 8, !tbaa !44
  %116 = getelementptr inbounds nuw %"struct.simdjson::internal::decimal", ptr %115, i32 0, i32 0
  %117 = load i32, ptr %116, align 4, !tbaa !26
  %118 = icmp ugt i32 %117, 768
  br i1 %118, label %119, label %122

119:                                              ; preds = %109
  %120 = load ptr, ptr %3, align 8, !tbaa !44
  %121 = getelementptr inbounds nuw %"struct.simdjson::internal::decimal", ptr %120, i32 0, i32 0
  store i32 768, ptr %121, align 4, !tbaa !26
  br label %122

122:                                              ; preds = %119, %109
  %123 = load i32, ptr %5, align 4, !tbaa !16
  %124 = load ptr, ptr %3, align 8, !tbaa !44
  %125 = getelementptr inbounds nuw %"struct.simdjson::internal::decimal", ptr %124, i32 0, i32 1
  %126 = load i32, ptr %125, align 4, !tbaa !28
  %127 = add nsw i32 %126, %123
  store i32 %127, ptr %125, align 4, !tbaa !28
  %128 = load ptr, ptr %3, align 8, !tbaa !44
  call void @_ZN8simdjson8internal12_GLOBAL__N_14trimERNS0_7decimalE(ptr noundef nonnull align 4 dereferenceable(780) %128)
  call void @llvm.lifetime.end.p0(i64 8, ptr %8) #10
  call void @llvm.lifetime.end.p0(i64 4, ptr %7) #10
  call void @llvm.lifetime.end.p0(i64 4, ptr %6) #10
  call void @llvm.lifetime.end.p0(i64 4, ptr %5) #10
  br label %129

129:                                              ; preds = %122, %17
  ret void
}