; Function Attrs: mustprogress nofree norecurse nosync nounwind memory(argmem: readwrite) uwtable
define dso_local void @_ZN8simdjson8internal18decimal_left_shiftERNS0_7decimalEj(ptr noundef nonnull align 4 captures(none) dereferenceable(780) %0, i32 noundef %1) local_unnamed_addr #5 {
  %3 = load i32, ptr %0, align 4, !tbaa !13
  %4 = icmp eq i32 %3, 0
  br i1 %4, label %_ZN8simdjson8internal12_GLOBAL__N_14trimERNS0_7decimalE.exit, label %5

5:                                                ; preds = %2
  %6 = and i32 %1, 63
  %7 = zext nneg i32 %6 to i64
  %8 = getelementptr inbounds nuw [65 x i16], ptr @_ZZN8simdjson8internal12_GLOBAL__N_135number_of_digits_decimal_left_shiftERNS0_7decimalEjE41number_of_digits_decimal_left_shift_table, i64 0, i64 %7
  %9 = load i16, ptr %8, align 2, !tbaa !37
  %10 = zext i16 %9 to i32
  %11 = add nuw nsw i32 %6, 1
  %12 = zext nneg i32 %11 to i64
  %13 = getelementptr inbounds nuw [65 x i16], ptr @_ZZN8simdjson8internal12_GLOBAL__N_135number_of_digits_decimal_left_shiftERNS0_7decimalEjE41number_of_digits_decimal_left_shift_table, i64 0, i64 %12
  %14 = load i16, ptr %13, align 2, !tbaa !37
  %15 = lshr i32 %10, 11
  %16 = and i32 %10, 2047
  %17 = and i16 %14, 2047
  %18 = zext nneg i16 %17 to i32
  %19 = zext nneg i32 %16 to i64
  %20 = getelementptr inbounds nuw [1308 x i8], ptr @_ZZN8simdjson8internal12_GLOBAL__N_135number_of_digits_decimal_left_shiftERNS0_7decimalEjE53number_of_digits_decimal_left_shift_table_powers_of_5, i64 0, i64 %19
  %.not31.i = icmp eq i32 %16, %18
  br i1 %.not31.i, label %_ZN8simdjson8internal12_GLOBAL__N_135number_of_digits_decimal_left_shiftERNS0_7decimalEj.exit, label %.lr.ph.i

.lr.ph.i:                                         ; preds = %5
  %21 = sub nsw i32 %18, %16
  %22 = getelementptr inbounds nuw i8, ptr %0, i64 10
  %wide.trip.count.i = zext i32 %3 to i64
  %wide.trip.count36.i = zext i32 %21 to i64
  br label %24

23:                                               ; preds = %27
  %indvars.iv.next.i = add nuw nsw i64 %indvars.iv.i, 1
  %exitcond37.not.i = icmp eq i64 %indvars.iv.next.i, %wide.trip.count36.i
  br i1 %exitcond37.not.i, label %_ZN8simdjson8internal12_GLOBAL__N_135number_of_digits_decimal_left_shiftERNS0_7decimalEj.exit, label %24, !llvm.loop !39

24:                                               ; preds = %23, %.lr.ph.i
  %indvars.iv.i = phi i64 [ 0, %.lr.ph.i ], [ %indvars.iv.next.i, %23 ]
  %exitcond.not.i = icmp eq i64 %indvars.iv.i, %wide.trip.count.i
  br i1 %exitcond.not.i, label %25, label %27

25:                                               ; preds = %24
  %26 = add nsw i32 %15, -1
  br label %_ZN8simdjson8internal12_GLOBAL__N_135number_of_digits_decimal_left_shiftERNS0_7decimalEj.exit

27:                                               ; preds = %24
  %28 = getelementptr inbounds nuw [768 x i8], ptr %22, i64 0, i64 %indvars.iv.i
  %29 = load i8, ptr %28, align 1, !tbaa !4
  %30 = getelementptr inbounds nuw i8, ptr %20, i64 %indvars.iv.i
  %31 = load i8, ptr %30, align 1, !tbaa !4
  %32 = icmp eq i8 %29, %31
  br i1 %32, label %23, label %33

33:                                               ; preds = %27
  %34 = icmp ult i8 %29, %31
  %35 = sext i1 %34 to i32
  %spec.select.i = add nsw i32 %15, %35
  br label %_ZN8simdjson8internal12_GLOBAL__N_135number_of_digits_decimal_left_shiftERNS0_7decimalEj.exit

_ZN8simdjson8internal12_GLOBAL__N_135number_of_digits_decimal_left_shiftERNS0_7decimalEj.exit: ; preds = %23, %5, %25, %33
  %.0.i = phi i32 [ %26, %25 ], [ %spec.select.i, %33 ], [ %15, %5 ], [ %15, %23 ]
  %36 = add i32 %3, -1
  %37 = icmp sgt i32 %36, -1
  br i1 %37, label %.lr.ph, label %._crit_edge

.lr.ph:                                           ; preds = %_ZN8simdjson8internal12_GLOBAL__N_135number_of_digits_decimal_left_shiftERNS0_7decimalEj.exit
  %38 = add i32 %.0.i, %36
  %39 = getelementptr inbounds nuw i8, ptr %0, i64 10
  %40 = zext nneg i32 %1 to i64
  %41 = getelementptr inbounds nuw i8, ptr %0, i64 9
  %42 = zext nneg i32 %36 to i64
  br label %45

.preheader:                                       ; preds = %60
  %.not57 = icmp ult i64 %50, 10
  br i1 %.not57, label %._crit_edge, label %.lr.ph60

.lr.ph60:                                         ; preds = %.preheader
  %43 = getelementptr inbounds nuw i8, ptr %0, i64 9
  %44 = getelementptr inbounds nuw i8, ptr %0, i64 10
  br label %63

45:                                               ; preds = %.lr.ph, %60
  %indvars.iv = phi i64 [ %42, %.lr.ph ], [ %indvars.iv.next, %60 ]
  %.04154 = phi i32 [ %38, %.lr.ph ], [ %61, %60 ]
  %.04253 = phi i64 [ 0, %.lr.ph ], [ %51, %60 ]
  %46 = getelementptr inbounds nuw [768 x i8], ptr %39, i64 0, i64 %indvars.iv
  %47 = load i8, ptr %46, align 1, !tbaa !4
  %48 = zext i8 %47 to i64
  %49 = shl i64 %48, %40
  %50 = add i64 %49, %.04253
  %51 = udiv i64 %50, 10
  %.neg45 = mul i64 %51, -10
  %52 = add i64 %.neg45, %50
  %53 = icmp ult i32 %.04154, 768
  br i1 %53, label %54, label %58

54:                                               ; preds = %45
  %55 = trunc i64 %52 to i8
  %56 = zext nneg i32 %.04154 to i64
  %57 = getelementptr inbounds nuw [768 x i8], ptr %39, i64 0, i64 %56
  store i8 %55, ptr %57, align 1, !tbaa !4
  br label %60

58:                                               ; preds = %45
  %.not46 = icmp eq i64 %52, 0
  br i1 %.not46, label %60, label %59

59:                                               ; preds = %58
  store i8 1, ptr %41, align 1, !tbaa !17
  br label %60

60:                                               ; preds = %58, %59, %54
  %61 = add i32 %.04154, -1
  %indvars.iv.next = add nsw i64 %indvars.iv, -1
  %62 = icmp sgt i64 %indvars.iv, 0
  br i1 %62, label %45, label %.preheader, !llvm.loop !40

63:                                               ; preds = %.lr.ph60, %73
  %.159 = phi i32 [ %61, %.lr.ph60 ], [ %74, %73 ]
  %.14358 = phi i64 [ %51, %.lr.ph60 ], [ %64, %73 ]
  %64 = udiv i64 %.14358, 10
  %.neg = mul nsw i64 %64, -10
  %65 = add nsw i64 %.neg, %.14358
  %66 = icmp ult i32 %.159, 768
  br i1 %66, label %67, label %71

67:                                               ; preds = %63
  %68 = trunc i64 %65 to i8
  %69 = zext nneg i32 %.159 to i64
  %70 = getelementptr inbounds nuw [768 x i8], ptr %44, i64 0, i64 %69
  store i8 %68, ptr %70, align 1, !tbaa !4
  br label %73

71:                                               ; preds = %63
  %.not44 = icmp eq i64 %65, 0
  br i1 %.not44, label %73, label %72

72:                                               ; preds = %71
  store i8 1, ptr %43, align 1, !tbaa !17
  br label %73

73:                                               ; preds = %71, %72, %67
  %74 = add i32 %.159, -1
  %.not = icmp samesign ult i64 %.14358, 10
  br i1 %.not, label %._crit_edge, label %63, !llvm.loop !41

._crit_edge:                                      ; preds = %73, %_ZN8simdjson8internal12_GLOBAL__N_135number_of_digits_decimal_left_shiftERNS0_7decimalEj.exit, %.preheader
  %75 = add i32 %.0.i, %3
  %spec.select = tail call i32 @llvm.umin.i32(i32 %75, i32 768)
  store i32 %spec.select, ptr %0, align 4, !tbaa !13
  %76 = getelementptr inbounds nuw i8, ptr %0, i64 4
  %77 = load i32, ptr %76, align 4, !tbaa !16
  %78 = add nsw i32 %77, %.0.i
  store i32 %78, ptr %76, align 4, !tbaa !16
  %79 = getelementptr inbounds nuw i8, ptr %0, i64 10
  %.not4.i = icmp eq i32 %75, 0
  br i1 %.not4.i, label %_ZN8simdjson8internal12_GLOBAL__N_14trimERNS0_7decimalE.exit, label %.lr.ph.preheader.i

.lr.ph.preheader.i:                               ; preds = %._crit_edge
  %80 = zext nneg i32 %spec.select to i64
  br label %.lr.ph.i47

.lr.ph.i47:                                       ; preds = %85, %.lr.ph.preheader.i
  %indvars.iv.i48 = phi i64 [ %80, %.lr.ph.preheader.i ], [ %indvars.iv.next.i49, %85 ]
  %indvars.iv.next.i49 = add nsw i64 %indvars.iv.i48, -1
  %81 = and i64 %indvars.iv.next.i49, 4294967295
  %82 = getelementptr inbounds nuw [768 x i8], ptr %79, i64 0, i64 %81
  %83 = load i8, ptr %82, align 1, !tbaa !4
  %84 = icmp eq i8 %83, 0
  br i1 %84, label %85, label %_ZN8simdjson8internal12_GLOBAL__N_14trimERNS0_7decimalE.exit

85:                                               ; preds = %.lr.ph.i47
  %indvars.i = trunc i64 %indvars.iv.next.i49 to i32
  store i32 %indvars.i, ptr %0, align 4, !tbaa !13
  %.not.i = icmp eq i32 %indvars.i, 0
  br i1 %.not.i, label %_ZN8simdjson8internal12_GLOBAL__N_14trimERNS0_7decimalE.exit, label %.lr.ph.i47, !llvm.loop !42

_ZN8simdjson8internal12_GLOBAL__N_14trimERNS0_7decimalE.exit: ; preds = %85, %.lr.ph.i47, %._crit_edge, %2
  ret void
}